target datalayout = "e-m:e-p270:32:32-p271:32:32-p272:64:64-i64:64-i128:128-f80:128-n8:16:32:64-S128"
target triple = "x86_64-pc-linux-gnu"

; Function Attrs: nounwind uwtable
define hidden float @SDL_sRGBfromLinear(float noundef %0) #0 {
  %2 = alloca float, align 4
  store float %0, ptr %2, align 4
  %3 = load float, ptr %2, align 4
  %4 = fcmp ole float %3, 0x3F69A5C380000000
  br i1 %4, label %5, label %8

5:                                                ; preds = %1
  %6 = load float, ptr %2, align 4
  %7 = fmul float %6, 0x4029D70A40000000
  store float %7, ptr %2, align 4
  br label %12

8:                                                ; preds = %1
  %9 = load float, ptr %2, align 4
  %10 = call float @SDL_powf_REAL(float noundef %9, float noundef 0x3FDAAAAAA0000000)
  %11 = call float @llvm.fmuladd.f32(float %10, float 0x3FF0E147A0000000, float 0xBFAC28F5C0000000)
  store float %11, ptr %2, align 4
  br label %12

12:                                               ; preds = %8, %5
  %13 = load float, ptr %2, align 4
  ret float %13
}