; Function Attrs: nounwind uwtable
define hidden float @SDL_sRGBfromLinear(float noundef %0) local_unnamed_addr #1 {
  %2 = fcmp ugt float %0, 0x3F69A5C380000000
  br i1 %2, label %5, label %3

3:                                                ; preds = %1
  %4 = fmul float %0, 0x4029D70A40000000
  br label %8

5:                                                ; preds = %1
  %6 = tail call float @SDL_powf_REAL(float noundef %0, float noundef 0x3FDAAAAAA0000000) #15
  %7 = tail call float @llvm.fmuladd.f32(float %6, float 0x3FF0E147A0000000, float 0xBFAC28F5C0000000)
  br label %8

8:                                                ; preds = %5, %3
  %.0 = phi float [ %4, %3 ], [ %7, %5 ]
  ret float %.0
}